; Function Attrs: mustprogress nounwind uwtable
define dso_local noundef range(i32 0, 4) i32 @_ZN5clang6Parser25TryParseSimpleDeclarationEb(ptr noundef nonnull align 8 dereferenceable(2936) %0, i1 noundef zeroext %1) local_unnamed_addr #0 align 2 {
  %3 = getelementptr inbounds nuw i8, ptr %0, i64 32
  %4 = load i16, ptr %3, align 8
  %5 = icmp eq i16 %4, 77
  %6 = tail call noundef i32 @_ZN5clang6Parser30TryConsumeDeclarationSpecifierEv(ptr noundef nonnull align 8 dereferenceable(2936) %0)
  %7 = icmp eq i32 %6, 3
  br i1 %7, label %17, label %8

8:                                                ; preds = %2
  %9 = load i16, ptr %3, align 8
  %.not13 = icmp eq i16 %9, 22
  br i1 %.not13, label %12, label %10

10:                                               ; preds = %8
  %11 = tail call noundef i32 @_ZN5clang6Parser25isCXXDeclarationSpecifierENS_23ImplicitTypenameContextENS0_8TPResultEPb(ptr noundef nonnull align 8 dereferenceable(2936) %0, i32 noundef 0, i32 noundef 1, ptr noundef null)
  switch i32 %11, label %12 [
    i32 2, label %17
    i32 3, label %.fold.split
    i32 0, label %.fold.split
  ]

12:                                               ; preds = %10, %8
  %13 = tail call noundef i32 @_ZN5clang6Parser26TryParseInitDeclaratorListEb(ptr noundef nonnull align 8 dereferenceable(2936) %0, i1 noundef zeroext %5)
  %.not = icmp eq i32 %13, 2
  br i1 %.not, label %14, label %17

14:                                               ; preds = %12
  %15 = load i16, ptr %3, align 8
  %.not14 = icmp eq i16 %15, 63
  %16 = icmp eq i16 %15, 62
  %or.cond.not = and i1 %1, %16
  %or.cond = or i1 %.not14, %or.cond.not
  %spec.select = select i1 %or.cond, i32 2, i32 1
  br label %17

.fold.split:                                      ; preds = %10, %10
  br label %17

17:                                               ; preds = %14, %10, %.fold.split, %12, %2
  %.0 = phi i32 [ 3, %2 ], [ 0, %10 ], [ %13, %12 ], [ %11, %.fold.split ], [ %spec.select, %14 ]
  ret i32 %.0
}